; Function Attrs: nounwind memory(read, argmem: readwrite, inaccessiblemem: none) uwtable
define range(i32 0, 2) i32 @ossl_ml_dsa_poly_decode_expand_mask(ptr noundef writeonly captures(none) %0, ptr noundef %1, i64 noundef %2, i32 noundef %3) local_unnamed_addr #4 {
  %5 = alloca %struct.PACKET, align 8
  call void @llvm.lifetime.start.p0(i64 16, ptr nonnull %5) #9
  %6 = icmp slt i64 %2, 0
  br i1 %6, label %PACKET_buf_init.exit.thread, label %7

7:                                                ; preds = %4
  store ptr %1, ptr %5, align 8, !tbaa !48
  %8 = getelementptr inbounds nuw i8, ptr %5, i64 8
  store i64 %2, ptr %8, align 8, !tbaa !50
  %9 = icmp eq i32 %3, 524288
  br i1 %9, label %10, label %12

10:                                               ; preds = %7
  %11 = call i32 @poly_decode_signed_two_to_power_19(ptr noundef %0, ptr noundef nonnull %5)
  br label %PACKET_buf_init.exit.thread

12:                                               ; preds = %7
  %13 = call i32 @poly_decode_signed_two_to_power_17(ptr noundef %0, ptr noundef nonnull %5)
  br label %PACKET_buf_init.exit.thread

PACKET_buf_init.exit.thread:                      ; preds = %4, %12, %10
  %.0 = phi i32 [ %11, %10 ], [ %13, %12 ], [ 0, %4 ]
  call void @llvm.lifetime.end.p0(i64 16, ptr nonnull %5) #9
  ret i32 %.0
}